; Function Attrs: nounwind sspstrong uwtable
define internal noundef i64 @rb_ary_to_a(i64 noundef %0) #4 {
  %2 = tail call i64 @rb_obj_class(i64 noundef %0) #24
  %3 = load i64, ptr @rb_cArray, align 8, !tbaa !13
  %.not = icmp eq i64 %2, %3
  br i1 %.not, label %16, label %4

4:                                                ; preds = %1
  %5 = inttoptr i64 %0 to ptr
  %6 = load i64, ptr %5, align 8, !tbaa !7
  %7 = and i64 %6, 8192
  %.not.i = icmp eq i64 %7, 0
  br i1 %.not.i, label %11, label %8

8:                                                ; preds = %4
  %9 = lshr i64 %6, 15
  %10 = and i64 %9, 127
  br label %rb_array_len.exit

11:                                               ; preds = %4
  %12 = getelementptr inbounds nuw i8, ptr %5, i64 16
  %13 = load i64, ptr %12, align 8, !tbaa !12
  br label %rb_array_len.exit

rb_array_len.exit:                                ; preds = %8, %11
  %.0.i = phi i64 [ %10, %8 ], [ %13, %11 ]
  %14 = tail call fastcc i64 @ary_new(i64 noundef %3, i64 noundef %.0.i)
  %15 = tail call i64 @rb_ary_replace(i64 noundef %14, i64 noundef %0)
  br label %16

16:                                               ; preds = %1, %rb_array_len.exit
  %.0 = phi i64 [ %14, %rb_array_len.exit ], [ %0, %1 ]
  ret i64 %.0
}